ccopy_reg
_reconstructor
p1
(csklearn.multiclass
OneVsRestClassifier
p2
c__builtin__
object
p3
NtRp4
(dp5
S'estimator'
p6
g1
(csklearn.svm.classes
LinearSVC
p7
g3
NtRp8
(dp9
S'loss'
p10
S'squared_hinge'
p11
sS'C'
F1
sS'verbose'
p12
I0
sS'intercept_scaling'
p13
I1
sS'dual'
p14
I01
sS'fit_intercept'
p15
I01
sS'max_iter'
p16
I1000
sS'penalty'
p17
S'l2'
p18
sS'multi_class'
p19
S'ovr'
p20
sS'random_state'
p21
I0
sS'tol'
p22
F0.0001
sS'class_weight'
p23
NsbsS'n_jobs'
p24
I1
sb.